target datalayout = "e-m:e-p270:32:32-p271:32:32-p272:64:64-i64:64-i128:128-f80:128-n8:16:32:64-S128"
target triple = "x86_64-pc-linux-gnu"

@port_resv_table = dso_local global ptr null, align 8
@port_resv_cnt = dso_local global i32 0, align 4
@port_resv_min = dso_local global i32 0, align 4
@.str.4 = private unnamed_addr constant [11 x i8] c"port_mgr.c\00", align 1
@_resv_port_alloc.last_port_alloc = internal global i32 0, align 4
@__func__._resv_port_alloc = private unnamed_addr constant [17 x i8] c"_resv_port_alloc\00", align 1
@.str.22 = private unnamed_addr constant [3 x i8] c"%d\00", align 1

; Function Attrs: nounwind uwtable
define internal i32 @_resv_port_alloc(i16 noundef zeroext %0, ptr noundef %1, ptr noundef %2, ptr noundef %3, ptr noundef %4) #0 {
  %6 = alloca i32, align 4
  %7 = alloca i16, align 2
  %8 = alloca ptr, align 8
  %9 = alloca ptr, align 8
  %10 = alloca ptr, align 8
  %11 = alloca ptr, align 8
  %12 = alloca i32, align 4
  %13 = alloca ptr, align 8
  %14 = alloca [16 x i8], align 16
  %15 = alloca ptr, align 8
  %16 = alloca i32, align 4
  store i16 %0, ptr %7, align 2
  store ptr %1, ptr %8, align 8
  store ptr %2, ptr %9, align 8
  store ptr %3, ptr %10, align 8
  store ptr %4, ptr %11, align 8
  call void @llvm.lifetime.start.p0(i64 4, ptr %12) #6
  call void @llvm.lifetime.start.p0(i64 8, ptr %13) #6
  store ptr null, ptr %13, align 8
  call void @llvm.lifetime.start.p0(i64 16, ptr %14) #6
  call void @llvm.lifetime.start.p0(i64 8, ptr %15) #6
  %17 = load i16, ptr %7, align 2
  %18 = zext i16 %17 to i32
  %19 = load i32, ptr @port_resv_cnt, align 4
  %20 = icmp sgt i32 %18, %19
  br i1 %20, label %21, label %22

21:                                               ; preds = %5
  store i32 2060, ptr %6, align 4
  store i32 1, ptr %16, align 4
  br label %126

22:                                               ; preds = %5
  %23 = load i16, ptr %7, align 2
  %24 = zext i16 %23 to i64
  %25 = mul i64 4, %24
  %26 = call ptr @slurm_xcalloc(i64 noundef 1, i64 noundef %25, i1 noundef zeroext true, i1 noundef zeroext false, ptr noundef @.str.4, i32 noundef 351, ptr noundef @__func__._resv_port_alloc)
  store ptr %26, ptr %13, align 8
  %27 = load ptr, ptr %11, align 8
  store i32 0, ptr %27, align 4
  store i32 0, ptr %12, align 4
  br label %28

28:                                               ; preds = %70, %22
  %29 = load i32, ptr %12, align 4
  %30 = load i32, ptr @port_resv_cnt, align 4
  %31 = icmp slt i32 %29, %30
  br i1 %31, label %32, label %73

32:                                               ; preds = %28
  %33 = load i32, ptr @_resv_port_alloc.last_port_alloc, align 4
  %34 = add nsw i32 %33, 1
  store i32 %34, ptr @_resv_port_alloc.last_port_alloc, align 4
  %35 = load i32, ptr @port_resv_cnt, align 4
  %36 = icmp sge i32 %34, %35
  br i1 %36, label %37, label %38

37:                                               ; preds = %32
  store i32 0, ptr @_resv_port_alloc.last_port_alloc, align 4
  br label %38

38:                                               ; preds = %37, %32
  %39 = load ptr, ptr @port_resv_table, align 8
  %40 = load i32, ptr @_resv_port_alloc.last_port_alloc, align 4
  %41 = sext i32 %40 to i64
  %42 = getelementptr inbounds ptr, ptr %39, i64 %41
  %43 = load ptr, ptr %42, align 8
  %44 = icmp ne ptr %43, null
  br i1 %44, label %45, label %54

45:                                               ; preds = %38
  %46 = load ptr, ptr %8, align 8
  %47 = load ptr, ptr @port_resv_table, align 8
  %48 = load i32, ptr @_resv_port_alloc.last_port_alloc, align 4
  %49 = sext i32 %48 to i64
  %50 = getelementptr inbounds ptr, ptr %47, i64 %49
  %51 = load ptr, ptr %50, align 8
  %52 = call i32 @bit_overlap_any(ptr noundef %46, ptr noundef %51)
  %53 = icmp ne i32 %52, 0
  br i1 %53, label %54, label %55

54:                                               ; preds = %45, %38
  br label %70

55:                                               ; preds = %45
  %56 = load i32, ptr @_resv_port_alloc.last_port_alloc, align 4
  %57 = load ptr, ptr %13, align 8
  %58 = load ptr, ptr %11, align 8
  %59 = load i32, ptr %58, align 4
  %60 = add nsw i32 %59, 1
  store i32 %60, ptr %58, align 4
  %61 = sext i32 %59 to i64
  %62 = getelementptr inbounds i32, ptr %57, i64 %61
  store i32 %56, ptr %62, align 4
  %63 = load ptr, ptr %11, align 8
  %64 = load i32, ptr %63, align 4
  %65 = load i16, ptr %7, align 2
  %66 = zext i16 %65 to i32
  %67 = icmp sge i32 %64, %66
  br i1 %67, label %68, label %69

68:                                               ; preds = %55
  br label %73

69:                                               ; preds = %55
  br label %70

70:                                               ; preds = %69, %54
  %71 = load i32, ptr %12, align 4
  %72 = add nsw i32 %71, 1
  store i32 %72, ptr %12, align 4
  br label %28, !llvm.loop !17

73:                                               ; preds = %68, %28
  %74 = load ptr, ptr %11, align 8
  %75 = load i32, ptr %74, align 4
  %76 = load i16, ptr %7, align 2
  %77 = zext i16 %76 to i32
  %78 = icmp slt i32 %75, %77
  br i1 %78, label %79, label %80

79:                                               ; preds = %73
  call void @slurm_xfree(ptr noundef %13)
  store i32 2059, ptr %6, align 4
  store i32 1, ptr %16, align 4
  br label %126

80:                                               ; preds = %73
  %81 = call ptr @hostlist_create(ptr noundef null)
  store ptr %81, ptr %15, align 8
  store i32 0, ptr %12, align 4
  br label %82

82:                                               ; preds = %115, %80
  %83 = load i32, ptr %12, align 4
  %84 = load ptr, ptr %11, align 8
  %85 = load i32, ptr %84, align 4
  %86 = icmp slt i32 %83, %85
  br i1 %86, label %87, label %118

87:                                               ; preds = %82
  %88 = load ptr, ptr @port_resv_table, align 8
  %89 = load ptr, ptr %13, align 8
  %90 = load i32, ptr %12, align 4
  %91 = sext i32 %90 to i64
  %92 = getelementptr inbounds i32, ptr %89, i64 %91
  %93 = load i32, ptr %92, align 4
  %94 = sext i32 %93 to i64
  %95 = getelementptr inbounds ptr, ptr %88, i64 %94
  %96 = load ptr, ptr %95, align 8
  %97 = load ptr, ptr %8, align 8
  call void @bit_or(ptr noundef %96, ptr noundef %97)
  %98 = load i32, ptr @port_resv_min, align 4
  %99 = load ptr, ptr %13, align 8
  %100 = load i32, ptr %12, align 4
  %101 = sext i32 %100 to i64
  %102 = getelementptr inbounds i32, ptr %99, i64 %101
  %103 = load i32, ptr %102, align 4
  %104 = add nsw i32 %103, %98
  store i32 %104, ptr %102, align 4
  %105 = getelementptr inbounds [16 x i8], ptr %14, i64 0, i64 0
  %106 = load ptr, ptr %13, align 8
  %107 = load i32, ptr %12, align 4
  %108 = sext i32 %107 to i64
  %109 = getelementptr inbounds i32, ptr %106, i64 %108
  %110 = load i32, ptr %109, align 4
  %111 = call i32 (ptr, i64, ptr, ...) @snprintf(ptr noundef %105, i64 noundef 16, ptr noundef @.str.22, i32 noundef %110) #6
  %112 = load ptr, ptr %15, align 8
  %113 = getelementptr inbounds [16 x i8], ptr %14, i64 0, i64 0
  %114 = call i32 @hostlist_push_host(ptr noundef %112, ptr noundef %113)
  br label %115

115:                                              ; preds = %87
  %116 = load i32, ptr %12, align 4
  %117 = add nsw i32 %116, 1
  store i32 %117, ptr %12, align 4
  br label %82, !llvm.loop !18

118:                                              ; preds = %82
  %119 = load ptr, ptr %15, align 8
  call void @hostlist_sort(ptr noundef %119)
  %120 = load ptr, ptr %15, align 8
  %121 = call ptr @hostlist_ranged_string_xmalloc_dims(ptr noundef %120, i32 noundef 1, i32 noundef 0)
  %122 = load ptr, ptr %9, align 8
  store ptr %121, ptr %122, align 8
  %123 = load ptr, ptr %15, align 8
  call void @hostlist_destroy(ptr noundef %123)
  %124 = load ptr, ptr %13, align 8
  %125 = load ptr, ptr %10, align 8
  store ptr %124, ptr %125, align 8
  store i32 0, ptr %6, align 4
  store i32 1, ptr %16, align 4
  br label %126

126:                                              ; preds = %118, %79, %21
  call void @llvm.lifetime.end.p0(i64 8, ptr %15) #6
  call void @llvm.lifetime.end.p0(i64 16, ptr %14) #6
  call void @llvm.lifetime.end.p0(i64 8, ptr %13) #6
  call void @llvm.lifetime.end.p0(i64 4, ptr %12) #6
  %127 = load i32, ptr %6, align 4
  ret i32 %127
}