; Function Attrs: nounwind uwtable
define internal fastcc range(i32 0, 2061) i32 @_resv_port_alloc(i16 noundef zeroext %0, ptr noundef %1, ptr noundef writeonly captures(none) %2, ptr noundef writeonly captures(none) %3, ptr noundef nonnull captures(none) %4) unnamed_addr #0 {
  %6 = alloca ptr, align 8
  %7 = alloca [16 x i8], align 16
  call void @llvm.lifetime.start.p0(i64 8, ptr nonnull %6) #8
  call void @llvm.lifetime.start.p0(i64 16, ptr nonnull %7) #8
  %8 = zext i16 %0 to i32
  %9 = load i32, ptr @port_resv_cnt, align 4
  %10 = icmp slt i32 %9, %8
  br i1 %10, label %59, label %11

11:                                               ; preds = %5
  %12 = zext i16 %0 to i64
  %13 = shl nuw nsw i64 %12, 2
  %14 = tail call ptr @slurm_xcalloc(i64 noundef 1, i64 noundef %13, i1 noundef zeroext true, i1 noundef zeroext false, ptr noundef nonnull @.str.4, i32 noundef 351, ptr noundef nonnull @__func__._resv_port_alloc) #8
  store ptr %14, ptr %6, align 8
  store i32 0, ptr %4, align 4
  %15 = load i32, ptr @port_resv_cnt, align 4
  %16 = icmp sgt i32 %15, 0
  br i1 %16, label %.lr.ph.preheader, label %._crit_edge

.lr.ph.preheader:                                 ; preds = %11
  %.pre37 = load i32, ptr @_resv_port_alloc.last_port_alloc, align 4
  br label %.lr.ph

.lr.ph:                                           ; preds = %.lr.ph.preheader, %32
  %17 = phi i32 [ %33, %32 ], [ %.pre37, %.lr.ph.preheader ]
  %18 = phi i32 [ %35, %32 ], [ %15, %.lr.ph.preheader ]
  %.02430 = phi i32 [ %34, %32 ], [ 0, %.lr.ph.preheader ]
  %19 = add nsw i32 %17, 1
  %.not = icmp slt i32 %19, %18
  %spec.store.select = select i1 %.not, i32 %19, i32 0
  store i32 %spec.store.select, ptr @_resv_port_alloc.last_port_alloc, align 4
  %20 = load ptr, ptr @port_resv_table, align 8
  %21 = sext i32 %spec.store.select to i64
  %22 = getelementptr inbounds ptr, ptr %20, i64 %21
  %23 = load ptr, ptr %22, align 8
  %.not27 = icmp eq ptr %23, null
  br i1 %.not27, label %32, label %24

24:                                               ; preds = %.lr.ph
  %25 = tail call i32 @bit_overlap_any(ptr noundef %1, ptr noundef nonnull %23) #8
  %.not28 = icmp eq i32 %25, 0
  %.pre = load i32, ptr @_resv_port_alloc.last_port_alloc, align 4
  br i1 %.not28, label %26, label %32

26:                                               ; preds = %24
  %27 = load i32, ptr %4, align 4
  %28 = add nsw i32 %27, 1
  store i32 %28, ptr %4, align 4
  %29 = sext i32 %27 to i64
  %30 = getelementptr inbounds i32, ptr %14, i64 %29
  store i32 %.pre, ptr %30, align 4
  %31 = load i32, ptr %4, align 4
  %.not29 = icmp slt i32 %31, %8
  br i1 %.not29, label %32, label %._crit_edge

32:                                               ; preds = %26, %.lr.ph, %24
  %33 = phi i32 [ %.pre, %26 ], [ %spec.store.select, %.lr.ph ], [ %.pre, %24 ]
  %34 = add nuw nsw i32 %.02430, 1
  %35 = load i32, ptr @port_resv_cnt, align 4
  %36 = icmp slt i32 %34, %35
  br i1 %36, label %.lr.ph, label %.._crit_edge.loopexit_crit_edge, !llvm.loop !18

.._crit_edge.loopexit_crit_edge:                  ; preds = %32
  %.pre38.pre = load i32, ptr %4, align 4
  br label %._crit_edge

._crit_edge:                                      ; preds = %26, %.._crit_edge.loopexit_crit_edge, %11
  %37 = phi i32 [ 0, %11 ], [ %.pre38.pre, %.._crit_edge.loopexit_crit_edge ], [ %31, %26 ]
  %38 = icmp slt i32 %37, %8
  br i1 %38, label %39, label %40

39:                                               ; preds = %._crit_edge
  call void @slurm_xfree(ptr noundef nonnull %6) #8
  br label %59

40:                                               ; preds = %._crit_edge
  %41 = tail call ptr @hostlist_create(ptr noundef null) #8
  %42 = load i32, ptr %4, align 4
  %43 = icmp sgt i32 %42, 0
  br i1 %43, label %.lr.ph34, label %._crit_edge35

.lr.ph34:                                         ; preds = %40, %.lr.ph34
  %indvars.iv = phi i64 [ %indvars.iv.next, %.lr.ph34 ], [ 0, %40 ]
  %44 = load ptr, ptr @port_resv_table, align 8
  %45 = getelementptr inbounds nuw i32, ptr %14, i64 %indvars.iv
  %46 = load i32, ptr %45, align 4
  %47 = sext i32 %46 to i64
  %48 = getelementptr inbounds ptr, ptr %44, i64 %47
  %49 = load ptr, ptr %48, align 8
  call void @bit_or(ptr noundef %49, ptr noundef %1) #8
  %50 = load i32, ptr @port_resv_min, align 4
  %51 = load i32, ptr %45, align 4
  %52 = add nsw i32 %51, %50
  store i32 %52, ptr %45, align 4
  %53 = call i32 (ptr, i64, ptr, ...) @snprintf(ptr noundef nonnull dereferenceable(1) %7, i64 noundef 16, ptr noundef nonnull @.str.22, i32 noundef %52) #8
  %54 = call i32 @hostlist_push_host(ptr noundef %41, ptr noundef nonnull %7) #8
  %indvars.iv.next = add nuw nsw i64 %indvars.iv, 1
  %55 = load i32, ptr %4, align 4
  %56 = sext i32 %55 to i64
  %57 = icmp slt i64 %indvars.iv.next, %56
  br i1 %57, label %.lr.ph34, label %._crit_edge35, !llvm.loop !19

._crit_edge35:                                    ; preds = %.lr.ph34, %40
  call void @hostlist_sort(ptr noundef %41) #8
  %58 = call ptr @hostlist_ranged_string_xmalloc_dims(ptr noundef %41, i32 noundef 1, i32 noundef 0) #8
  store ptr %58, ptr %2, align 8
  call void @hostlist_destroy(ptr noundef %41) #8
  store ptr %14, ptr %3, align 8
  br label %59

59:                                               ; preds = %5, %._crit_edge35, %39
  %.0 = phi i32 [ 2059, %39 ], [ 0, %._crit_edge35 ], [ 2060, %5 ]
  call void @llvm.lifetime.end.p0(i64 16, ptr nonnull %7) #8
  call void @llvm.lifetime.end.p0(i64 8, ptr nonnull %6) #8
  ret i32 %.0
}